target datalayout = "e-m:e-p270:32:32-p271:32:32-p272:64:64-i64:64-i128:128-f80:128-n8:16:32:64-S128"
target triple = "x86_64-pc-linux-gnu"

%class.Moves = type { i32, i32, i32, i32, i32, i32, i32, i32, i32, [13 x %"struct.Moves::trackType"], ptr, [13 x [4 x %struct.movePlyType]], ptr, [13 x [4 x i32]], [13 x %"class.std::__cxx11::basic_string"], [13 x [4 x %"struct.Moves::moveStatType"]], [13 x [4 x %"struct.Moves::moveStatType"]], [13 x [4 x %"struct.Moves::moveStatsType"]], [13 x [4 x %"struct.Moves::moveStatsType"]], %"struct.Moves::moveStatsType", %"struct.Moves::moveStatsType", [16 x { i64, i64 }] }
%"struct.Moves::trackType" = type { i32, i32, [4 x i32], [4 x i32], %struct.trickDataType, [4 x %struct.extCard], [4 x i32], [4 x [4 x i32]], [4 x i32] }
%struct.trickDataType = type { [4 x i32], i32, i32, i32, i32, i32 }
%struct.extCard = type { i32, i32, i32 }
%struct.movePlyType = type { [14 x %struct.moveType], i32, i32 }
%struct.moveType = type { i32, i32, i32, i32 }
%"class.std::__cxx11::basic_string" = type { %"struct.std::__cxx11::basic_string<char>::_Alloc_hider", i64, %union.anon }
%"struct.std::__cxx11::basic_string<char>::_Alloc_hider" = type { ptr }
%union.anon = type { i64, [8 x i8] }
%"struct.Moves::moveStatType" = type { i32, i32, i32, i32 }
%"struct.Moves::moveStatsType" = type { i32, [13 x %"struct.Moves::moveStatType"] }

; Function Attrs: mustprogress nounwind uwtable
define noundef ptr @_ZN5Moves14MakeNextSimpleEii(ptr noundef nonnull align 8 dereferenceable(39992) %0, i32 noundef %1, i32 noundef %2) #5 align 2 {
  %4 = alloca ptr, align 8
  %5 = alloca ptr, align 8
  %6 = alloca i32, align 4
  %7 = alloca i32, align 4
  %8 = alloca ptr, align 8
  %9 = alloca ptr, align 8
  store ptr %0, ptr %5, align 8
  store i32 %1, ptr %6, align 4
  store i32 %2, ptr %7, align 4
  %10 = load ptr, ptr %5, align 8
  %11 = getelementptr inbounds nuw %class.Moves, ptr %10, i32 0, i32 11
  %12 = load i32, ptr %6, align 4
  %13 = sext i32 %12 to i64
  %14 = getelementptr inbounds [13 x [4 x %struct.movePlyType]], ptr %11, i64 0, i64 %13
  %15 = load i32, ptr %7, align 4
  %16 = sext i32 %15 to i64
  %17 = getelementptr inbounds [4 x %struct.movePlyType], ptr %14, i64 0, i64 %16
  store ptr %17, ptr %8, align 8
  %18 = load ptr, ptr %8, align 8
  %19 = getelementptr inbounds nuw %struct.movePlyType, ptr %18, i32 0, i32 1
  %20 = load i32, ptr %19, align 4
  %21 = load ptr, ptr %8, align 8
  %22 = getelementptr inbounds nuw %struct.movePlyType, ptr %21, i32 0, i32 2
  %23 = load i32, ptr %22, align 4
  %24 = icmp sgt i32 %20, %23
  br i1 %24, label %25, label %26

25:                                               ; preds = %3
  store ptr null, ptr %4, align 8
  br label %291

26:                                               ; preds = %3
  %27 = load ptr, ptr %8, align 8
  %28 = getelementptr inbounds nuw %struct.movePlyType, ptr %27, i32 0, i32 0
  %29 = load ptr, ptr %8, align 8
  %30 = getelementptr inbounds nuw %struct.movePlyType, ptr %29, i32 0, i32 1
  %31 = load i32, ptr %30, align 4
  %32 = sext i32 %31 to i64
  %33 = getelementptr inbounds [14 x %struct.moveType], ptr %28, i64 0, i64 %32
  store ptr %33, ptr %9, align 8
  %34 = getelementptr inbounds nuw %class.Moves, ptr %10, i32 0, i32 9
  %35 = load i32, ptr %6, align 4
  %36 = sext i32 %35 to i64
  %37 = getelementptr inbounds [13 x %"struct.Moves::trackType"], ptr %34, i64 0, i64 %36
  %38 = getelementptr inbounds nuw %class.Moves, ptr %10, i32 0, i32 10
  store ptr %37, ptr %38, align 8
  %39 = load i32, ptr %7, align 4
  %40 = icmp eq i32 %39, 0
  br i1 %40, label %41, label %76

41:                                               ; preds = %26
  %42 = load ptr, ptr %9, align 8
  %43 = getelementptr inbounds nuw %struct.moveType, ptr %42, i32 0, i32 0
  %44 = load i32, ptr %43, align 4
  %45 = getelementptr inbounds nuw %class.Moves, ptr %10, i32 0, i32 10
  %46 = load ptr, ptr %45, align 8
  %47 = getelementptr inbounds nuw %"struct.Moves::trackType", ptr %46, i32 0, i32 5
  %48 = getelementptr inbounds [4 x %struct.extCard], ptr %47, i64 0, i64 0
  %49 = getelementptr inbounds nuw %struct.extCard, ptr %48, i32 0, i32 0
  store i32 %44, ptr %49, align 4
  %50 = load ptr, ptr %9, align 8
  %51 = getelementptr inbounds nuw %struct.moveType, ptr %50, i32 0, i32 1
  %52 = load i32, ptr %51, align 4
  %53 = getelementptr inbounds nuw %class.Moves, ptr %10, i32 0, i32 10
  %54 = load ptr, ptr %53, align 8
  %55 = getelementptr inbounds nuw %"struct.Moves::trackType", ptr %54, i32 0, i32 5
  %56 = getelementptr inbounds [4 x %struct.extCard], ptr %55, i64 0, i64 0
  %57 = getelementptr inbounds nuw %struct.extCard, ptr %56, i32 0, i32 1
  store i32 %52, ptr %57, align 4
  %58 = load ptr, ptr %9, align 8
  %59 = getelementptr inbounds nuw %struct.moveType, ptr %58, i32 0, i32 2
  %60 = load i32, ptr %59, align 4
  %61 = getelementptr inbounds nuw %class.Moves, ptr %10, i32 0, i32 10
  %62 = load ptr, ptr %61, align 8
  %63 = getelementptr inbounds nuw %"struct.Moves::trackType", ptr %62, i32 0, i32 5
  %64 = getelementptr inbounds [4 x %struct.extCard], ptr %63, i64 0, i64 0
  %65 = getelementptr inbounds nuw %struct.extCard, ptr %64, i32 0, i32 2
  store i32 %60, ptr %65, align 4
  %66 = getelementptr inbounds nuw %class.Moves, ptr %10, i32 0, i32 10
  %67 = load ptr, ptr %66, align 8
  %68 = getelementptr inbounds nuw %"struct.Moves::trackType", ptr %67, i32 0, i32 6
  %69 = getelementptr inbounds [4 x i32], ptr %68, i64 0, i64 0
  store i32 0, ptr %69, align 4
  %70 = load ptr, ptr %9, align 8
  %71 = getelementptr inbounds nuw %struct.moveType, ptr %70, i32 0, i32 0
  %72 = load i32, ptr %71, align 4
  %73 = getelementptr inbounds nuw %class.Moves, ptr %10, i32 0, i32 10
  %74 = load ptr, ptr %73, align 8
  %75 = getelementptr inbounds nuw %"struct.Moves::trackType", ptr %74, i32 0, i32 1
  store i32 %72, ptr %75, align 4
  br label %246

76:                                               ; preds = %26
  %77 = load ptr, ptr %9, align 8
  %78 = getelementptr inbounds nuw %struct.moveType, ptr %77, i32 0, i32 0
  %79 = load i32, ptr %78, align 4
  %80 = getelementptr inbounds nuw %class.Moves, ptr %10, i32 0, i32 10
  %81 = load ptr, ptr %80, align 8
  %82 = getelementptr inbounds nuw %"struct.Moves::trackType", ptr %81, i32 0, i32 5
  %83 = load i32, ptr %7, align 4
  %84 = sub nsw i32 %83, 1
  %85 = sext i32 %84 to i64
  %86 = getelementptr inbounds [4 x %struct.extCard], ptr %82, i64 0, i64 %85
  %87 = getelementptr inbounds nuw %struct.extCard, ptr %86, i32 0, i32 0
  %88 = load i32, ptr %87, align 4
  %89 = icmp eq i32 %79, %88
  br i1 %89, label %90, label %171

90:                                               ; preds = %76
  %91 = load ptr, ptr %9, align 8
  %92 = getelementptr inbounds nuw %struct.moveType, ptr %91, i32 0, i32 1
  %93 = load i32, ptr %92, align 4
  %94 = getelementptr inbounds nuw %class.Moves, ptr %10, i32 0, i32 10
  %95 = load ptr, ptr %94, align 8
  %96 = getelementptr inbounds nuw %"struct.Moves::trackType", ptr %95, i32 0, i32 5
  %97 = load i32, ptr %7, align 4
  %98 = sub nsw i32 %97, 1
  %99 = sext i32 %98 to i64
  %100 = getelementptr inbounds [4 x %struct.extCard], ptr %96, i64 0, i64 %99
  %101 = getelementptr inbounds nuw %struct.extCard, ptr %100, i32 0, i32 1
  %102 = load i32, ptr %101, align 4
  %103 = icmp sgt i32 %93, %102
  br i1 %103, label %104, label %142

104:                                              ; preds = %90
  %105 = load ptr, ptr %9, align 8
  %106 = getelementptr inbounds nuw %struct.moveType, ptr %105, i32 0, i32 0
  %107 = load i32, ptr %106, align 4
  %108 = getelementptr inbounds nuw %class.Moves, ptr %10, i32 0, i32 10
  %109 = load ptr, ptr %108, align 8
  %110 = getelementptr inbounds nuw %"struct.Moves::trackType", ptr %109, i32 0, i32 5
  %111 = load i32, ptr %7, align 4
  %112 = sext i32 %111 to i64
  %113 = getelementptr inbounds [4 x %struct.extCard], ptr %110, i64 0, i64 %112
  %114 = getelementptr inbounds nuw %struct.extCard, ptr %113, i32 0, i32 0
  store i32 %107, ptr %114, align 4
  %115 = load ptr, ptr %9, align 8
  %116 = getelementptr inbounds nuw %struct.moveType, ptr %115, i32 0, i32 1
  %117 = load i32, ptr %116, align 4
  %118 = getelementptr inbounds nuw %class.Moves, ptr %10, i32 0, i32 10
  %119 = load ptr, ptr %118, align 8
  %120 = getelementptr inbounds nuw %"struct.Moves::trackType", ptr %119, i32 0, i32 5
  %121 = load i32, ptr %7, align 4
  %122 = sext i32 %121 to i64
  %123 = getelementptr inbounds [4 x %struct.extCard], ptr %120, i64 0, i64 %122
  %124 = getelementptr inbounds nuw %struct.extCard, ptr %123, i32 0, i32 1
  store i32 %117, ptr %124, align 4
  %125 = load ptr, ptr %9, align 8
  %126 = getelementptr inbounds nuw %struct.moveType, ptr %125, i32 0, i32 2
  %127 = load i32, ptr %126, align 4
  %128 = getelementptr inbounds nuw %class.Moves, ptr %10, i32 0, i32 10
  %129 = load ptr, ptr %128, align 8
  %130 = getelementptr inbounds nuw %"struct.Moves::trackType", ptr %129, i32 0, i32 5
  %131 = load i32, ptr %7, align 4
  %132 = sext i32 %131 to i64
  %133 = getelementptr inbounds [4 x %struct.extCard], ptr %130, i64 0, i64 %132
  %134 = getelementptr inbounds nuw %struct.extCard, ptr %133, i32 0, i32 2
  store i32 %127, ptr %134, align 4
  %135 = load i32, ptr %7, align 4
  %136 = getelementptr inbounds nuw %class.Moves, ptr %10, i32 0, i32 10
  %137 = load ptr, ptr %136, align 8
  %138 = getelementptr inbounds nuw %"struct.Moves::trackType", ptr %137, i32 0, i32 6
  %139 = load i32, ptr %7, align 4
  %140 = sext i32 %139 to i64
  %141 = getelementptr inbounds [4 x i32], ptr %138, i64 0, i64 %140
  store i32 %135, ptr %141, align 4
  br label %170

142:                                              ; preds = %90
  %143 = getelementptr inbounds nuw %class.Moves, ptr %10, i32 0, i32 10
  %144 = load ptr, ptr %143, align 8
  %145 = getelementptr inbounds nuw %"struct.Moves::trackType", ptr %144, i32 0, i32 5
  %146 = load i32, ptr %7, align 4
  %147 = sub nsw i32 %146, 1
  %148 = sext i32 %147 to i64
  %149 = getelementptr inbounds [4 x %struct.extCard], ptr %145, i64 0, i64 %148
  %150 = getelementptr inbounds nuw %class.Moves, ptr %10, i32 0, i32 10
  %151 = load ptr, ptr %150, align 8
  %152 = getelementptr inbounds nuw %"struct.Moves::trackType", ptr %151, i32 0, i32 5
  %153 = load i32, ptr %7, align 4
  %154 = sext i32 %153 to i64
  %155 = getelementptr inbounds [4 x %struct.extCard], ptr %152, i64 0, i64 %154
  call void @llvm.memcpy.p0.p0.i64(ptr align 4 %155, ptr align 4 %149, i64 12, i1 false)
  %156 = getelementptr inbounds nuw %class.Moves, ptr %10, i32 0, i32 10
  %157 = load ptr, ptr %156, align 8
  %158 = getelementptr inbounds nuw %"struct.Moves::trackType", ptr %157, i32 0, i32 6
  %159 = load i32, ptr %7, align 4
  %160 = sub nsw i32 %159, 1
  %161 = sext i32 %160 to i64
  %162 = getelementptr inbounds [4 x i32], ptr %158, i64 0, i64 %161
  %163 = load i32, ptr %162, align 4
  %164 = getelementptr inbounds nuw %class.Moves, ptr %10, i32 0, i32 10
  %165 = load ptr, ptr %164, align 8
  %166 = getelementptr inbounds nuw %"struct.Moves::trackType", ptr %165, i32 0, i32 6
  %167 = load i32, ptr %7, align 4
  %168 = sext i32 %167 to i64
  %169 = getelementptr inbounds [4 x i32], ptr %166, i64 0, i64 %168
  store i32 %163, ptr %169, align 4
  br label %170

170:                                              ; preds = %142, %104
  br label %245

171:                                              ; preds = %76
  %172 = load ptr, ptr %9, align 8
  %173 = getelementptr inbounds nuw %struct.moveType, ptr %172, i32 0, i32 0
  %174 = load i32, ptr %173, align 4
  %175 = getelementptr inbounds nuw %class.Moves, ptr %10, i32 0, i32 5
  %176 = load i32, ptr %175, align 4
  %177 = icmp eq i32 %174, %176
  br i1 %177, label %178, label %216

178:                                              ; preds = %171
  %179 = load ptr, ptr %9, align 8
  %180 = getelementptr inbounds nuw %struct.moveType, ptr %179, i32 0, i32 0
  %181 = load i32, ptr %180, align 4
  %182 = getelementptr inbounds nuw %class.Moves, ptr %10, i32 0, i32 10
  %183 = load ptr, ptr %182, align 8
  %184 = getelementptr inbounds nuw %"struct.Moves::trackType", ptr %183, i32 0, i32 5
  %185 = load i32, ptr %7, align 4
  %186 = sext i32 %185 to i64
  %187 = getelementptr inbounds [4 x %struct.extCard], ptr %184, i64 0, i64 %186
  %188 = getelementptr inbounds nuw %struct.extCard, ptr %187, i32 0, i32 0
  store i32 %181, ptr %188, align 4
  %189 = load ptr, ptr %9, align 8
  %190 = getelementptr inbounds nuw %struct.moveType, ptr %189, i32 0, i32 1
  %191 = load i32, ptr %190, align 4
  %192 = getelementptr inbounds nuw %class.Moves, ptr %10, i32 0, i32 10
  %193 = load ptr, ptr %192, align 8
  %194 = getelementptr inbounds nuw %"struct.Moves::trackType", ptr %193, i32 0, i32 5
  %195 = load i32, ptr %7, align 4
  %196 = sext i32 %195 to i64
  %197 = getelementptr inbounds [4 x %struct.extCard], ptr %194, i64 0, i64 %196
  %198 = getelementptr inbounds nuw %struct.extCard, ptr %197, i32 0, i32 1
  store i32 %191, ptr %198, align 4
  %199 = load ptr, ptr %9, align 8
  %200 = getelementptr inbounds nuw %struct.moveType, ptr %199, i32 0, i32 2
  %201 = load i32, ptr %200, align 4
  %202 = getelementptr inbounds nuw %class.Moves, ptr %10, i32 0, i32 10
  %203 = load ptr, ptr %202, align 8
  %204 = getelementptr inbounds nuw %"struct.Moves::trackType", ptr %203, i32 0, i32 5
  %205 = load i32, ptr %7, align 4
  %206 = sext i32 %205 to i64
  %207 = getelementptr inbounds [4 x %struct.extCard], ptr %204, i64 0, i64 %206
  %208 = getelementptr inbounds nuw %struct.extCard, ptr %207, i32 0, i32 2
  store i32 %201, ptr %208, align 4
  %209 = load i32, ptr %7, align 4
  %210 = getelementptr inbounds nuw %class.Moves, ptr %10, i32 0, i32 10
  %211 = load ptr, ptr %210, align 8
  %212 = getelementptr inbounds nuw %"struct.Moves::trackType", ptr %211, i32 0, i32 6
  %213 = load i32, ptr %7, align 4
  %214 = sext i32 %213 to i64
  %215 = getelementptr inbounds [4 x i32], ptr %212, i64 0, i64 %214
  store i32 %209, ptr %215, align 4
  br label %244

216:                                              ; preds = %171
  %217 = getelementptr inbounds nuw %class.Moves, ptr %10, i32 0, i32 10
  %218 = load ptr, ptr %217, align 8
  %219 = getelementptr inbounds nuw %"struct.Moves::trackType", ptr %218, i32 0, i32 5
  %220 = load i32, ptr %7, align 4
  %221 = sub nsw i32 %220, 1
  %222 = sext i32 %221 to i64
  %223 = getelementptr inbounds [4 x %struct.extCard], ptr %219, i64 0, i64 %222
  %224 = getelementptr inbounds nuw %class.Moves, ptr %10, i32 0, i32 10
  %225 = load ptr, ptr %224, align 8
  %226 = getelementptr inbounds nuw %"struct.Moves::trackType", ptr %225, i32 0, i32 5
  %227 = load i32, ptr %7, align 4
  %228 = sext i32 %227 to i64
  %229 = getelementptr inbounds [4 x %struct.extCard], ptr %226, i64 0, i64 %228
  call void @llvm.memcpy.p0.p0.i64(ptr align 4 %229, ptr align 4 %223, i64 12, i1 false)
  %230 = getelementptr inbounds nuw %class.Moves, ptr %10, i32 0, i32 10
  %231 = load ptr, ptr %230, align 8
  %232 = getelementptr inbounds nuw %"struct.Moves::trackType", ptr %231, i32 0, i32 6
  %233 = load i32, ptr %7, align 4
  %234 = sub nsw i32 %233, 1
  %235 = sext i32 %234 to i64
  %236 = getelementptr inbounds [4 x i32], ptr %232, i64 0, i64 %235
  %237 = load i32, ptr %236, align 4
  %238 = getelementptr inbounds nuw %class.Moves, ptr %10, i32 0, i32 10
  %239 = load ptr, ptr %238, align 8
  %240 = getelementptr inbounds nuw %"struct.Moves::trackType", ptr %239, i32 0, i32 6
  %241 = load i32, ptr %7, align 4
  %242 = sext i32 %241 to i64
  %243 = getelementptr inbounds [4 x i32], ptr %240, i64 0, i64 %242
  store i32 %237, ptr %243, align 4
  br label %244

244:                                              ; preds = %216, %178
  br label %245

245:                                              ; preds = %244, %170
  br label %246

246:                                              ; preds = %245, %41
  %247 = load ptr, ptr %9, align 8
  %248 = getelementptr inbounds nuw %struct.moveType, ptr %247, i32 0, i32 0
  %249 = load i32, ptr %248, align 4
  %250 = getelementptr inbounds nuw %class.Moves, ptr %10, i32 0, i32 10
  %251 = load ptr, ptr %250, align 8
  %252 = getelementptr inbounds nuw %"struct.Moves::trackType", ptr %251, i32 0, i32 2
  %253 = load i32, ptr %7, align 4
  %254 = sext i32 %253 to i64
  %255 = getelementptr inbounds [4 x i32], ptr %252, i64 0, i64 %254
  store i32 %249, ptr %255, align 4
  %256 = load ptr, ptr %9, align 8
  %257 = getelementptr inbounds nuw %struct.moveType, ptr %256, i32 0, i32 1
  %258 = load i32, ptr %257, align 4
  %259 = getelementptr inbounds nuw %class.Moves, ptr %10, i32 0, i32 10
  %260 = load ptr, ptr %259, align 8
  %261 = getelementptr inbounds nuw %"struct.Moves::trackType", ptr %260, i32 0, i32 3
  %262 = load i32, ptr %7, align 4
  %263 = sext i32 %262 to i64
  %264 = getelementptr inbounds [4 x i32], ptr %261, i64 0, i64 %263
  store i32 %258, ptr %264, align 4
  %265 = load i32, ptr %7, align 4
  %266 = icmp eq i32 %265, 3
  br i1 %266, label %267, label %285

267:                                              ; preds = %246
  %268 = getelementptr inbounds nuw %class.Moves, ptr %10, i32 0, i32 10
  %269 = load ptr, ptr %268, align 8
  %270 = getelementptr inbounds nuw %"struct.Moves::trackType", ptr %269, i32 0, i32 0
  %271 = load i32, ptr %270, align 4
  %272 = getelementptr inbounds nuw %class.Moves, ptr %10, i32 0, i32 10
  %273 = load ptr, ptr %272, align 8
  %274 = getelementptr inbounds nuw %"struct.Moves::trackType", ptr %273, i32 0, i32 6
  %275 = getelementptr inbounds [4 x i32], ptr %274, i64 0, i64 3
  %276 = load i32, ptr %275, align 4
  %277 = add nsw i32 %271, %276
  %278 = srem i32 %277, 4
  %279 = getelementptr inbounds nuw %class.Moves, ptr %10, i32 0, i32 9
  %280 = load i32, ptr %6, align 4
  %281 = sub nsw i32 %280, 1
  %282 = sext i32 %281 to i64
  %283 = getelementptr inbounds [13 x %"struct.Moves::trackType"], ptr %279, i64 0, i64 %282
  %284 = getelementptr inbounds nuw %"struct.Moves::trackType", ptr %283, i32 0, i32 0
  store i32 %278, ptr %284, align 4
  br label %285

285:                                              ; preds = %267, %246
  %286 = load ptr, ptr %8, align 8
  %287 = getelementptr inbounds nuw %struct.movePlyType, ptr %286, i32 0, i32 1
  %288 = load i32, ptr %287, align 4
  %289 = add nsw i32 %288, 1
  store i32 %289, ptr %287, align 4
  %290 = load ptr, ptr %9, align 8
  store ptr %290, ptr %4, align 8
  br label %291

291:                                              ; preds = %285, %25
  %292 = load ptr, ptr %4, align 8
  ret ptr %292
}