; Function Attrs: mustprogress nofree norecurse nosync nounwind willreturn memory(readwrite, inaccessiblemem: none) uwtable
define noundef ptr @_ZN5Moves14MakeNextSimpleEii(ptr noundef nonnull align 8 dereferenceable(39992) %0, i32 noundef %1, i32 noundef %2) local_unnamed_addr #11 align 2 {
  %4 = getelementptr inbounds nuw i8, ptr %0, i64 2904
  %5 = sext i32 %1 to i64
  %6 = sext i32 %2 to i64
  %7 = getelementptr inbounds [13 x [4 x %struct.movePlyType]], ptr %4, i64 0, i64 %5, i64 %6
  %8 = getelementptr inbounds nuw i8, ptr %7, i64 224
  %9 = load i32, ptr %8, align 8
  %10 = getelementptr inbounds nuw i8, ptr %7, i64 228
  %11 = load i32, ptr %10, align 4
  %12 = icmp sgt i32 %9, %11
  br i1 %12, label %113, label %13

13:                                               ; preds = %3
  %14 = sext i32 %9 to i64
  %15 = getelementptr inbounds [14 x %struct.moveType], ptr %7, i64 0, i64 %14
  %16 = getelementptr inbounds nuw i8, ptr %0, i64 36
  %17 = getelementptr inbounds [13 x %"struct.Moves::trackType"], ptr %16, i64 0, i64 %5
  %18 = getelementptr inbounds nuw i8, ptr %0, i64 2896
  store ptr %17, ptr %18, align 8
  %19 = icmp eq i32 %2, 0
  %20 = load i32, ptr %15, align 8
  %21 = getelementptr inbounds nuw i8, ptr %17, i64 76
  br i1 %19, label %22, label %32

22:                                               ; preds = %13
  store i32 %20, ptr %21, align 4
  %23 = getelementptr inbounds nuw i8, ptr %15, i64 4
  %24 = load i32, ptr %23, align 4
  %25 = getelementptr inbounds i8, ptr %17, i64 80
  store i32 %24, ptr %25, align 4
  %26 = getelementptr inbounds nuw i8, ptr %15, i64 8
  %27 = load i32, ptr %26, align 8
  %28 = getelementptr inbounds i8, ptr %17, i64 84
  store i32 %27, ptr %28, align 4
  %29 = getelementptr inbounds nuw i8, ptr %17, i64 124
  store i32 0, ptr %29, align 4
  %30 = load i32, ptr %15, align 8
  %31 = getelementptr inbounds nuw i8, ptr %17, i64 4
  store i32 %30, ptr %31, align 4
  br label %89

32:                                               ; preds = %13
  %33 = add nsw i32 %2, -1
  %34 = sext i32 %33 to i64
  %35 = getelementptr inbounds [4 x %struct.extCard], ptr %21, i64 0, i64 %34
  %36 = load i32, ptr %35, align 4
  %37 = icmp eq i32 %20, %36
  br i1 %37, label %38, label %64

38:                                               ; preds = %32
  %39 = getelementptr inbounds nuw i8, ptr %15, i64 4
  %40 = load i32, ptr %39, align 4
  %41 = getelementptr inbounds nuw i8, ptr %35, i64 4
  %42 = load i32, ptr %41, align 4
  %43 = icmp sgt i32 %40, %42
  %44 = getelementptr inbounds [4 x %struct.extCard], ptr %21, i64 0, i64 %6
  br i1 %43, label %45, label %58

45:                                               ; preds = %38
  store i32 %20, ptr %44, align 4
  %46 = load i32, ptr %39, align 4
  %47 = load ptr, ptr %18, align 8
  %48 = getelementptr inbounds nuw i8, ptr %47, i64 76
  %49 = getelementptr inbounds [4 x %struct.extCard], ptr %48, i64 0, i64 %6, i32 1
  store i32 %46, ptr %49, align 4
  %50 = getelementptr inbounds nuw i8, ptr %15, i64 8
  %51 = load i32, ptr %50, align 8
  %52 = load ptr, ptr %18, align 8
  %53 = getelementptr inbounds nuw i8, ptr %52, i64 76
  %54 = getelementptr inbounds [4 x %struct.extCard], ptr %53, i64 0, i64 %6, i32 2
  store i32 %51, ptr %54, align 4
  %55 = load ptr, ptr %18, align 8
  %56 = getelementptr inbounds nuw i8, ptr %55, i64 124
  %57 = getelementptr inbounds [4 x i32], ptr %56, i64 0, i64 %6
  store i32 %2, ptr %57, align 4
  br label %89

58:                                               ; preds = %38
  tail call void @llvm.memcpy.p0.p0.i64(ptr noundef nonnull align 4 dereferenceable(12) %44, ptr noundef nonnull align 4 dereferenceable(12) %35, i64 12, i1 false)
  %59 = load ptr, ptr %18, align 8
  %60 = getelementptr inbounds nuw i8, ptr %59, i64 124
  %61 = getelementptr inbounds [4 x i32], ptr %60, i64 0, i64 %34
  %62 = load i32, ptr %61, align 4
  %63 = getelementptr inbounds [4 x i32], ptr %60, i64 0, i64 %6
  store i32 %62, ptr %63, align 4
  br label %89

64:                                               ; preds = %32
  %65 = getelementptr inbounds nuw i8, ptr %0, i64 20
  %66 = load i32, ptr %65, align 4
  %67 = icmp eq i32 %20, %66
  %68 = getelementptr inbounds [4 x %struct.extCard], ptr %21, i64 0, i64 %6
  br i1 %67, label %69, label %83

69:                                               ; preds = %64
  store i32 %20, ptr %68, align 4
  %70 = getelementptr inbounds nuw i8, ptr %15, i64 4
  %71 = load i32, ptr %70, align 4
  %72 = load ptr, ptr %18, align 8
  %73 = getelementptr inbounds nuw i8, ptr %72, i64 76
  %74 = getelementptr inbounds [4 x %struct.extCard], ptr %73, i64 0, i64 %6, i32 1
  store i32 %71, ptr %74, align 4
  %75 = getelementptr inbounds nuw i8, ptr %15, i64 8
  %76 = load i32, ptr %75, align 8
  %77 = load ptr, ptr %18, align 8
  %78 = getelementptr inbounds nuw i8, ptr %77, i64 76
  %79 = getelementptr inbounds [4 x %struct.extCard], ptr %78, i64 0, i64 %6, i32 2
  store i32 %76, ptr %79, align 4
  %80 = load ptr, ptr %18, align 8
  %81 = getelementptr inbounds nuw i8, ptr %80, i64 124
  %82 = getelementptr inbounds [4 x i32], ptr %81, i64 0, i64 %6
  store i32 %2, ptr %82, align 4
  br label %89

83:                                               ; preds = %64
  tail call void @llvm.memcpy.p0.p0.i64(ptr noundef nonnull align 4 dereferenceable(12) %68, ptr noundef nonnull align 4 dereferenceable(12) %35, i64 12, i1 false)
  %84 = load ptr, ptr %18, align 8
  %85 = getelementptr inbounds nuw i8, ptr %84, i64 124
  %86 = getelementptr inbounds [4 x i32], ptr %85, i64 0, i64 %34
  %87 = load i32, ptr %86, align 4
  %88 = getelementptr inbounds [4 x i32], ptr %85, i64 0, i64 %6
  store i32 %87, ptr %88, align 4
  br label %89

89:                                               ; preds = %58, %45, %83, %69, %22
  %90 = load i32, ptr %15, align 8
  %91 = load ptr, ptr %18, align 8
  %92 = getelementptr inbounds nuw i8, ptr %91, i64 8
  %93 = getelementptr inbounds [4 x i32], ptr %92, i64 0, i64 %6
  store i32 %90, ptr %93, align 4
  %94 = getelementptr inbounds nuw i8, ptr %15, i64 4
  %95 = load i32, ptr %94, align 4
  %96 = load ptr, ptr %18, align 8
  %97 = getelementptr inbounds nuw i8, ptr %96, i64 24
  %98 = getelementptr inbounds [4 x i32], ptr %97, i64 0, i64 %6
  store i32 %95, ptr %98, align 4
  %99 = icmp eq i32 %2, 3
  br i1 %99, label %100, label %110

100:                                              ; preds = %89
  %101 = load ptr, ptr %18, align 8
  %102 = load i32, ptr %101, align 4
  %103 = getelementptr inbounds i8, ptr %101, i64 136
  %104 = load i32, ptr %103, align 4
  %105 = add nsw i32 %104, %102
  %106 = srem i32 %105, 4
  %107 = add nsw i32 %1, -1
  %108 = sext i32 %107 to i64
  %109 = getelementptr inbounds [13 x %"struct.Moves::trackType"], ptr %16, i64 0, i64 %108
  store i32 %106, ptr %109, align 4
  br label %110

110:                                              ; preds = %100, %89
  %111 = load i32, ptr %8, align 8
  %112 = add nsw i32 %111, 1
  store i32 %112, ptr %8, align 8
  br label %113

113:                                              ; preds = %3, %110
  %.0 = phi ptr [ %15, %110 ], [ null, %3 ]
  ret ptr %.0
}